#include <math.h>
#include <stdio.h>
#include <stdlib.h>
#include <string.h>

int main()
{
 int a,b,c,d,e,n;
 scanf("%d",&n);
 a=n/10000;
 b=(n-10000*a)/1000;
 c=(n-10000*a-1000*b)/100;
 d=(n%100)/10;
 e=n%10;
 if(a!=0) printf("%d%d%d%d%d",e,d,c,b,a);
       else if(b!=0) printf("%d%d%d%d",e,d,c,b);
             else if(c!=0) printf("%d%d%d",e,d,c);
                  else if(d!=0) printf("%d%d",e,d);
                       else if(e!=0) printf("%d",e);
                             else printf("0");
  return 0;
}